; Function Attrs: nofree norecurse nosync nounwind memory(readwrite, inaccessiblemem: none) uwtable
define hidden ptr @_PyErr_GetHandledException(ptr noundef readonly captures(none) %0) local_unnamed_addr #8 {
  %2 = getelementptr inbounds nuw i8, ptr %0, i64 120
  %3 = load ptr, ptr %2, align 8, !tbaa !38
  br label %4

4:                                                ; preds = %7, %1
  %.0.i = phi ptr [ %3, %1 ], [ %9, %7 ]
  %5 = load ptr, ptr %.0.i, align 8, !tbaa !39
  %6 = icmp eq ptr %5, null
  br i1 %6, label %7, label %_PyErr_GetTopmostException.exit

7:                                                ; preds = %4
  %8 = getelementptr inbounds nuw i8, ptr %.0.i, i64 8
  %9 = load ptr, ptr %8, align 8, !tbaa !40
  %.not.i = icmp eq ptr %9, null
  br i1 %.not.i, label %_Py_NewRef.exit, label %4, !llvm.loop !41

_PyErr_GetTopmostException.exit:                  ; preds = %4
  %10 = icmp eq ptr %5, @_Py_NoneStruct
  br i1 %10, label %_Py_NewRef.exit, label %11

11:                                               ; preds = %_PyErr_GetTopmostException.exit
  %12 = load i32, ptr %5, align 8, !tbaa !20
  %13 = icmp slt i32 %12, 0
  br i1 %13, label %_Py_NewRef.exit, label %14

14:                                               ; preds = %11
  %15 = add nuw i32 %12, 1
  store i32 %15, ptr %5, align 8, !tbaa !20
  br label %_Py_NewRef.exit

_Py_NewRef.exit:                                  ; preds = %7, %14, %11, %_PyErr_GetTopmostException.exit
  %.0 = phi ptr [ null, %_PyErr_GetTopmostException.exit ], [ %5, %11 ], [ %5, %14 ], [ null, %7 ]
  ret ptr %.0
}